; ModuleID = '17/1080.c'
source_filename = "17/1080.c"
target datalayout = "e-m:e-p270:32:32-p271:32:32-p272:64:64-i64:64-f80:128-n8:16:32:64-S128"
target triple = "x86_64-pc-linux-gnu"

@.str = private unnamed_addr constant [4 x i8] c"%s\0A\00", align 1

; Function Attrs: noinline nounwind uwtable
define dso_local i32 @main() #0 {
  %1 = alloca i32, align 4
  %2 = alloca [100 x i8], align 16
  %3 = alloca [101 x i8], align 16
  %4 = alloca i32, align 4
  %5 = alloca i32, align 4
  %6 = alloca i32, align 4
  %7 = alloca i32, align 4
  %8 = alloca i32, align 4
  %9 = alloca i32, align 4
  store i32 0, i32* %1, align 4
  br label %10

10:                                               ; preds = %105, %0
  %11 = getelementptr inbounds [100 x i8], [100 x i8]* %2, i64 0, i64 0
  %12 = call i32 (i8*, ...) bitcast (i32 (...)* @gets to i32 (i8*, ...)*)(i8* %11)
  %13 = icmp ne i32 %12, 0
  br i1 %13, label %14, label %108

14:                                               ; preds = %10
  store i32 0, i32* %4, align 4
  br label %15

15:                                               ; preds = %22, %14
  %16 = load i32, i32* %4, align 4
  %17 = icmp slt i32 %16, 101
  br i1 %17, label %18, label %25

18:                                               ; preds = %15
  %19 = load i32, i32* %4, align 4
  %20 = sext i32 %19 to i64
  %21 = getelementptr inbounds [101 x i8], [101 x i8]* %3, i64 0, i64 %20
  store i8 32, i8* %21, align 1
  br label %22

22:                                               ; preds = %18
  %23 = load i32, i32* %4, align 4
  %24 = add nsw i32 %23, 1
  store i32 %24, i32* %4, align 4
  br label %15

25:                                               ; preds = %15
  %26 = getelementptr inbounds [100 x i8], [100 x i8]* %2, i64 0, i64 0
  %27 = call i32 (i8*, ...) @printf(i8* getelementptr inbounds ([4 x i8], [4 x i8]* @.str, i64 0, i64 0), i8* %26)
  %28 = getelementptr inbounds [100 x i8], [100 x i8]* %2, i64 0, i64 0
  %29 = call i64 @strlen(i8* %28) #3
  %30 = trunc i64 %29 to i32
  store i32 %30, i32* %5, align 4
  %31 = load i32, i32* %5, align 4
  %32 = sext i32 %31 to i64
  %33 = getelementptr inbounds [101 x i8], [101 x i8]* %3, i64 0, i64 %32
  store i8 0, i8* %33, align 1
  store i32 0, i32* %6, align 4
  %34 = load i32, i32* %5, align 4
  %35 = sub nsw i32 %34, 1
  store i32 %35, i32* %7, align 4
  br label %36

36:                                               ; preds = %82, %25
  %37 = load i32, i32* %7, align 4
  %38 = icmp ne i32 %37, -1
  br i1 %38, label %39, label %85

39:                                               ; preds = %36
  %40 = load i32, i32* %7, align 4
  %41 = sext i32 %40 to i64
  %42 = getelementptr inbounds [100 x i8], [100 x i8]* %2, i64 0, i64 %41
  %43 = load i8, i8* %42, align 1
  %44 = sext i8 %43 to i32
  %45 = icmp eq i32 %44, 40
  br i1 %45, label %46, label %81

46:                                               ; preds = %39
  %47 = load i32, i32* %7, align 4
  %48 = add nsw i32 %47, 1
  store i32 %48, i32* %8, align 4
  br label %49

49:                                               ; preds = %77, %46
  %50 = load i32, i32* %8, align 4
  %51 = sext i32 %50 to i64
  %52 = getelementptr inbounds [100 x i8], [100 x i8]* %2, i64 0, i64 %51
  %53 = load i8, i8* %52, align 1
  %54 = sext i8 %53 to i32
  %55 = icmp eq i32 %54, 41
  br i1 %55, label %56, label %65

56:                                               ; preds = %49
  %57 = load i32, i32* %7, align 4
  %58 = sext i32 %57 to i64
  %59 = getelementptr inbounds [100 x i8], [100 x i8]* %2, i64 0, i64 %58
  store i8 48, i8* %59, align 1
  %60 = load i32, i32* %8, align 4
  %61 = sext i32 %60 to i64
  %62 = getelementptr inbounds [100 x i8], [100 x i8]* %2, i64 0, i64 %61
  store i8 48, i8* %62, align 1
  %63 = load i32, i32* %6, align 4
  %64 = add nsw i32 %63, 1
  store i32 %64, i32* %6, align 4
  br label %80

65:                                               ; preds = %49
  %66 = load i32, i32* %8, align 4
  %67 = load i32, i32* %5, align 4
  %68 = icmp eq i32 %66, %67
  br i1 %68, label %69, label %76

69:                                               ; preds = %65
  %70 = load i32, i32* %7, align 4
  %71 = sext i32 %70 to i64
  %72 = getelementptr inbounds [100 x i8], [100 x i8]* %2, i64 0, i64 %71
  store i8 48, i8* %72, align 1
  %73 = load i32, i32* %7, align 4
  %74 = sext i32 %73 to i64
  %75 = getelementptr inbounds [101 x i8], [101 x i8]* %3, i64 0, i64 %74
  store i8 36, i8* %75, align 1
  br label %80

76:                                               ; preds = %65
  br label %77

77:                                               ; preds = %76
  %78 = load i32, i32* %8, align 4
  %79 = add nsw i32 %78, 1
  store i32 %79, i32* %8, align 4
  br label %49

80:                                               ; preds = %69, %56
  br label %81

81:                                               ; preds = %80, %39
  br label %82

82:                                               ; preds = %81
  %83 = load i32, i32* %7, align 4
  %84 = add nsw i32 %83, -1
  store i32 %84, i32* %7, align 4
  br label %36

85:                                               ; preds = %36
  store i32 0, i32* %9, align 4
  br label %86

86:                                               ; preds = %102, %85
  %87 = load i32, i32* %9, align 4
  %88 = load i32, i32* %5, align 4
  %89 = icmp slt i32 %87, %88
  br i1 %89, label %90, label %105

90:                                               ; preds = %86
  %91 = load i32, i32* %9, align 4
  %92 = sext i32 %91 to i64
  %93 = getelementptr inbounds [100 x i8], [100 x i8]* %2, i64 0, i64 %92
  %94 = load i8, i8* %93, align 1
  %95 = sext i8 %94 to i32
  %96 = icmp eq i32 %95, 41
  br i1 %96, label %97, label %101

97:                                               ; preds = %90
  %98 = load i32, i32* %9, align 4
  %99 = sext i32 %98 to i64
  %100 = getelementptr inbounds [101 x i8], [101 x i8]* %3, i64 0, i64 %99
  store i8 63, i8* %100, align 1
  br label %101

101:                                              ; preds = %97, %90
  br label %102

102:                                              ; preds = %101
  %103 = load i32, i32* %9, align 4
  %104 = add nsw i32 %103, 1
  store i32 %104, i32* %9, align 4
  br label %86

105:                                              ; preds = %86
  %106 = getelementptr inbounds [101 x i8], [101 x i8]* %3, i64 0, i64 0
  %107 = call i32 (i8*, ...) @printf(i8* getelementptr inbounds ([4 x i8], [4 x i8]* @.str, i64 0, i64 0), i8* %106)
  br label %10

108:                                              ; preds = %10
  ret i32 0
}

declare dso_local i32 @gets(...) #1

declare dso_local i32 @printf(i8*, ...) #1

; Function Attrs: nounwind readonly
declare dso_local i64 @strlen(i8*) #2


!llvm.module.flags = !{!0}
!llvm.ident = !{!1}

!0 = !{i32 1, !"wchar_size", i32 4}
!1 = !{!"clang version 10.0.0-4ubuntu1 "}
